target datalayout = "e-m:e-p270:32:32-p271:32:32-p272:64:64-i64:64-i128:128-f80:128-n8:16:32:64-S128"
target triple = "x86_64-pc-linux-gnu"

%struct.Dar_Man_t_ = type { ptr, ptr, ptr, ptr, ptr, ptr, i32, i32, i32, i32, i32, i32, [222 x i32], [222 x i32], [222 x i32], i32, i32, i32, i32, i32, i32, i32, i32, i32, i64, i64, i64, i64, i64, i64 }

; Function Attrs: nounwind uwtable
define void @Dar_ManCutsFree(ptr noundef %0) #0 {
  %2 = alloca ptr, align 8
  store ptr %0, ptr %2, align 8, !tbaa !26
  %3 = load ptr, ptr %2, align 8, !tbaa !26
  %4 = getelementptr inbounds nuw %struct.Dar_Man_t_, ptr %3, i32 0, i32 2
  %5 = load ptr, ptr %4, align 8, !tbaa !28
  %6 = icmp eq ptr %5, null
  br i1 %6, label %7, label %8

7:                                                ; preds = %1
  br label %14

8:                                                ; preds = %1
  %9 = load ptr, ptr %2, align 8, !tbaa !26
  %10 = getelementptr inbounds nuw %struct.Dar_Man_t_, ptr %9, i32 0, i32 2
  %11 = load ptr, ptr %10, align 8, !tbaa !28
  call void @Aig_MmFixedStop(ptr noundef %11, i32 noundef 0)
  %12 = load ptr, ptr %2, align 8, !tbaa !26
  %13 = getelementptr inbounds nuw %struct.Dar_Man_t_, ptr %12, i32 0, i32 2
  store ptr null, ptr %13, align 8, !tbaa !28
  br label %14

14:                                               ; preds = %8, %7
  ret void
}