; Function Attrs: nounwind uwtable
define void @Dar_ManCutsFree(ptr noundef captures(none) %0) local_unnamed_addr #3 {
  %2 = getelementptr inbounds nuw i8, ptr %0, i64 16
  %3 = load ptr, ptr %2, align 8, !tbaa !19
  %4 = icmp eq ptr %3, null
  br i1 %4, label %6, label %5

5:                                                ; preds = %1
  tail call void @Aig_MmFixedStop(ptr noundef nonnull %3, i32 noundef 0) #12
  store ptr null, ptr %2, align 8, !tbaa !19
  br label %6

6:                                                ; preds = %1, %5
  ret void
}